target datalayout = "e-m:e-p270:32:32-p271:32:32-p272:64:64-i64:64-i128:128-f80:128-n8:16:32:64-S128"
target triple = "x86_64-pc-linux-gnu"

; Function Attrs: nounwind uwtable
define internal ptr @_get_current_interp() #0 {
  %1 = call ptr @PyInterpreterState_Get()
  ret ptr %1
}

; Function Attrs: nounwind uwtable
define internal ptr @interp_get_current(ptr noundef %0, ptr noundef %1) #0 {
  %3 = alloca ptr, align 8
  %4 = alloca ptr, align 8
  %5 = alloca ptr, align 8
  %6 = alloca ptr, align 8
  %7 = alloca i32, align 4
  store ptr %0, ptr %4, align 8, !tbaa !3
  store ptr %1, ptr %5, align 8, !tbaa !3
  call void @llvm.lifetime.start.p0(i64 8, ptr %6) #8
  %8 = call ptr @_get_current_interp()
  store ptr %8, ptr %6, align 8, !tbaa !15
  %9 = load ptr, ptr %6, align 8, !tbaa !15
  %10 = icmp eq ptr %9, null
  br i1 %10, label %11, label %12

11:                                               ; preds = %2
  store ptr null, ptr %3, align 8
  store i32 1, ptr %7, align 4
  br label %15

12:                                               ; preds = %2
  %13 = load ptr, ptr %6, align 8, !tbaa !15
  %14 = call ptr @get_summary(ptr noundef %13)
  store ptr %14, ptr %3, align 8
  store i32 1, ptr %7, align 4
  br label %15

15:                                               ; preds = %12, %11
  call void @llvm.lifetime.end.p0(i64 8, ptr %6) #8
  %16 = load ptr, ptr %3, align 8
  ret ptr %16
}